target datalayout = "e-m:e-p270:32:32-p271:32:32-p272:64:64-i64:64-i128:128-f80:128-n8:16:32:64-S128"
target triple = "x86_64-pc-linux-gnu"

; Function Attrs: nounwind uwtable
define internal void @convert_mask_to_strength_mask(ptr noundef %0, i32 noundef %1, i32 noundef %2, i32 noundef %3, i32 noundef %4, ptr noundef %5) #1 {
  %7 = alloca ptr, align 8
  %8 = alloca i32, align 4
  %9 = alloca i32, align 4
  %10 = alloca i32, align 4
  %11 = alloca i32, align 4
  %12 = alloca ptr, align 8
  %13 = alloca i32, align 4
  %14 = alloca i32, align 4
  %15 = alloca i32, align 4
  %16 = alloca i32, align 4
  %17 = alloca ptr, align 8
  %18 = alloca ptr, align 8
  %19 = alloca i32, align 4
  store ptr %0, ptr %7, align 8, !tbaa !70
  store i32 %1, ptr %8, align 4, !tbaa !24
  store i32 %2, ptr %9, align 4, !tbaa !24
  store i32 %3, ptr %10, align 4, !tbaa !24
  store i32 %4, ptr %11, align 4, !tbaa !24
  store ptr %5, ptr %12, align 8, !tbaa !38
  call void @llvm.lifetime.start.p0(i64 4, ptr %13) #4
  call void @llvm.lifetime.start.p0(i64 4, ptr %14) #4
  call void @llvm.lifetime.start.p0(i64 4, ptr %15) #4
  store i32 0, ptr %15, align 4, !tbaa !24
  store i32 0, ptr %14, align 4, !tbaa !24
  br label %20

20:                                               ; preds = %56, %6
  %21 = load i32, ptr %14, align 4, !tbaa !24
  %22 = load i32, ptr %10, align 4, !tbaa !24
  %23 = icmp slt i32 %21, %22
  br i1 %23, label %24, label %59

24:                                               ; preds = %20
  store i32 0, ptr %13, align 4, !tbaa !24
  br label %25

25:                                               ; preds = %52, %24
  %26 = load i32, ptr %13, align 4, !tbaa !24
  %27 = load i32, ptr %9, align 4, !tbaa !24
  %28 = icmp slt i32 %26, %27
  br i1 %28, label %29, label %55

29:                                               ; preds = %25
  %30 = load ptr, ptr %7, align 8, !tbaa !70
  %31 = load i32, ptr %14, align 4, !tbaa !24
  %32 = load i32, ptr %8, align 4, !tbaa !24
  %33 = mul nsw i32 %31, %32
  %34 = load i32, ptr %13, align 4, !tbaa !24
  %35 = add nsw i32 %33, %34
  %36 = sext i32 %35 to i64
  %37 = getelementptr inbounds i8, ptr %30, i64 %36
  %38 = load i8, ptr %37, align 1, !tbaa !77
  %39 = zext i8 %38 to i32
  %40 = load i32, ptr %11, align 4, !tbaa !24
  %41 = icmp sgt i32 %39, %40
  %42 = zext i1 %41 to i32
  %43 = trunc i32 %42 to i8
  %44 = load ptr, ptr %7, align 8, !tbaa !70
  %45 = load i32, ptr %14, align 4, !tbaa !24
  %46 = load i32, ptr %8, align 4, !tbaa !24
  %47 = mul nsw i32 %45, %46
  %48 = load i32, ptr %13, align 4, !tbaa !24
  %49 = add nsw i32 %47, %48
  %50 = sext i32 %49 to i64
  %51 = getelementptr inbounds i8, ptr %44, i64 %50
  store i8 %43, ptr %51, align 1, !tbaa !77
  br label %52

52:                                               ; preds = %29
  %53 = load i32, ptr %13, align 4, !tbaa !24
  %54 = add nsw i32 %53, 1
  store i32 %54, ptr %13, align 4, !tbaa !24
  br label %25, !llvm.loop !85

55:                                               ; preds = %25
  br label %56

56:                                               ; preds = %55
  %57 = load i32, ptr %14, align 4, !tbaa !24
  %58 = add nsw i32 %57, 1
  store i32 %58, ptr %14, align 4, !tbaa !24
  br label %20, !llvm.loop !86

59:                                               ; preds = %20
  br label %60

60:                                               ; preds = %145, %59
  br label %61

61:                                               ; preds = %60
  call void @llvm.lifetime.start.p0(i64 4, ptr %16) #4
  store i32 0, ptr %16, align 4, !tbaa !24
  call void @llvm.lifetime.start.p0(i64 8, ptr %17) #4
  %62 = load ptr, ptr %7, align 8, !tbaa !70
  %63 = getelementptr inbounds i8, ptr %62, i64 1
  %64 = load i32, ptr %8, align 4, !tbaa !24
  %65 = sext i32 %64 to i64
  %66 = getelementptr inbounds i8, ptr %63, i64 %65
  store ptr %66, ptr %17, align 8, !tbaa !70
  call void @llvm.lifetime.start.p0(i64 8, ptr %18) #4
  %67 = load i32, ptr %15, align 4, !tbaa !24
  %68 = add nsw i32 %67, 1
  store i32 %68, ptr %15, align 4, !tbaa !24
  store i32 1, ptr %14, align 4, !tbaa !24
  br label %69

69:                                               ; preds = %135, %61
  %70 = load i32, ptr %14, align 4, !tbaa !24
  %71 = load i32, ptr %10, align 4, !tbaa !24
  %72 = sub nsw i32 %71, 1
  %73 = icmp slt i32 %70, %72
  br i1 %73, label %74, label %138

74:                                               ; preds = %69
  %75 = load ptr, ptr %17, align 8, !tbaa !70
  store ptr %75, ptr %18, align 8, !tbaa !70
  store i32 1, ptr %13, align 4, !tbaa !24
  br label %76

76:                                               ; preds = %127, %74
  %77 = load i32, ptr %13, align 4, !tbaa !24
  %78 = load i32, ptr %9, align 4, !tbaa !24
  %79 = sub nsw i32 %78, 1
  %80 = icmp slt i32 %77, %79
  br i1 %80, label %81, label %130

81:                                               ; preds = %76
  %82 = load ptr, ptr %18, align 8, !tbaa !70
  %83 = load i8, ptr %82, align 1, !tbaa !77
  %84 = zext i8 %83 to i32
  %85 = load i32, ptr %15, align 4, !tbaa !24
  %86 = icmp sge i32 %84, %85
  br i1 %86, label %87, label %124

87:                                               ; preds = %81
  %88 = load ptr, ptr %18, align 8, !tbaa !70
  %89 = getelementptr inbounds i8, ptr %88, i64 1
  %90 = load i8, ptr %89, align 1, !tbaa !77
  %91 = zext i8 %90 to i32
  %92 = load i32, ptr %15, align 4, !tbaa !24
  %93 = icmp sge i32 %91, %92
  br i1 %93, label %94, label %124

94:                                               ; preds = %87
  %95 = load ptr, ptr %18, align 8, !tbaa !70
  %96 = getelementptr inbounds i8, ptr %95, i64 -1
  %97 = load i8, ptr %96, align 1, !tbaa !77
  %98 = zext i8 %97 to i32
  %99 = load i32, ptr %15, align 4, !tbaa !24
  %100 = icmp sge i32 %98, %99
  br i1 %100, label %101, label %124

101:                                              ; preds = %94
  %102 = load ptr, ptr %18, align 8, !tbaa !70
  %103 = load i32, ptr %8, align 4, !tbaa !24
  %104 = sext i32 %103 to i64
  %105 = getelementptr inbounds i8, ptr %102, i64 %104
  %106 = load i8, ptr %105, align 1, !tbaa !77
  %107 = zext i8 %106 to i32
  %108 = load i32, ptr %15, align 4, !tbaa !24
  %109 = icmp sge i32 %107, %108
  br i1 %109, label %110, label %124

110:                                              ; preds = %101
  %111 = load ptr, ptr %18, align 8, !tbaa !70
  %112 = load i32, ptr %8, align 4, !tbaa !24
  %113 = sext i32 %112 to i64
  %114 = sub i64 0, %113
  %115 = getelementptr inbounds i8, ptr %111, i64 %114
  %116 = load i8, ptr %115, align 1, !tbaa !77
  %117 = zext i8 %116 to i32
  %118 = load i32, ptr %15, align 4, !tbaa !24
  %119 = icmp sge i32 %117, %118
  br i1 %119, label %120, label %124

120:                                              ; preds = %110
  %121 = load ptr, ptr %18, align 8, !tbaa !70
  %122 = load i8, ptr %121, align 1, !tbaa !77
  %123 = add i8 %122, 1
  store i8 %123, ptr %121, align 1, !tbaa !77
  store i32 1, ptr %16, align 4, !tbaa !24
  br label %124

124:                                              ; preds = %120, %110, %101, %94, %87, %81
  %125 = load ptr, ptr %18, align 8, !tbaa !70
  %126 = getelementptr inbounds nuw i8, ptr %125, i32 1
  store ptr %126, ptr %18, align 8, !tbaa !70
  br label %127

127:                                              ; preds = %124
  %128 = load i32, ptr %13, align 4, !tbaa !24
  %129 = add nsw i32 %128, 1
  store i32 %129, ptr %13, align 4, !tbaa !24
  br label %76, !llvm.loop !87

130:                                              ; preds = %76
  %131 = load i32, ptr %8, align 4, !tbaa !24
  %132 = load ptr, ptr %17, align 8, !tbaa !70
  %133 = sext i32 %131 to i64
  %134 = getelementptr inbounds i8, ptr %132, i64 %133
  store ptr %134, ptr %17, align 8, !tbaa !70
  br label %135

135:                                              ; preds = %130
  %136 = load i32, ptr %14, align 4, !tbaa !24
  %137 = add nsw i32 %136, 1
  store i32 %137, ptr %14, align 4, !tbaa !24
  br label %69, !llvm.loop !88

138:                                              ; preds = %69
  %139 = load i32, ptr %16, align 4, !tbaa !24
  %140 = icmp ne i32 %139, 0
  br i1 %140, label %142, label %141

141:                                              ; preds = %138
  store i32 9, ptr %19, align 4
  br label %143

142:                                              ; preds = %138
  store i32 0, ptr %19, align 4
  br label %143

143:                                              ; preds = %142, %141
  call void @llvm.lifetime.end.p0(i64 8, ptr %18) #4
  call void @llvm.lifetime.end.p0(i64 8, ptr %17) #4
  call void @llvm.lifetime.end.p0(i64 4, ptr %16) #4
  %144 = load i32, ptr %19, align 4
  switch i32 %144, label %205 [
    i32 0, label %145
    i32 9, label %146
  ]

145:                                              ; preds = %143
  br label %60

146:                                              ; preds = %143
  store i32 1, ptr %14, align 4, !tbaa !24
  br label %147

147:                                              ; preds = %194, %146
  %148 = load i32, ptr %14, align 4, !tbaa !24
  %149 = load i32, ptr %10, align 4, !tbaa !24
  %150 = sub nsw i32 %149, 1
  %151 = icmp slt i32 %148, %150
  br i1 %151, label %152, label %197

152:                                              ; preds = %147
  store i32 1, ptr %13, align 4, !tbaa !24
  br label %153

153:                                              ; preds = %190, %152
  %154 = load i32, ptr %13, align 4, !tbaa !24
  %155 = load i32, ptr %9, align 4, !tbaa !24
  %156 = sub nsw i32 %155, 1
  %157 = icmp slt i32 %154, %156
  br i1 %157, label %158, label %193

158:                                              ; preds = %153
  %159 = load ptr, ptr %7, align 8, !tbaa !70
  %160 = load i32, ptr %14, align 4, !tbaa !24
  %161 = load i32, ptr %8, align 4, !tbaa !24
  %162 = mul nsw i32 %160, %161
  %163 = load i32, ptr %13, align 4, !tbaa !24
  %164 = add nsw i32 %162, %163
  %165 = sext i32 %164 to i64
  %166 = getelementptr inbounds i8, ptr %159, i64 %165
  %167 = load i8, ptr %166, align 1, !tbaa !77
  %168 = zext i8 %167 to i32
  %169 = ashr i32 %168, 2
  %170 = load ptr, ptr %7, align 8, !tbaa !70
  %171 = load i32, ptr %14, align 4, !tbaa !24
  %172 = load i32, ptr %8, align 4, !tbaa !24
  %173 = mul nsw i32 %171, %172
  %174 = load i32, ptr %13, align 4, !tbaa !24
  %175 = add nsw i32 %173, %174
  %176 = sext i32 %175 to i64
  %177 = getelementptr inbounds i8, ptr %170, i64 %176
  %178 = load i8, ptr %177, align 1, !tbaa !77
  %179 = zext i8 %178 to i32
  %180 = add nsw i32 %169, %179
  %181 = trunc i32 %180 to i8
  %182 = load ptr, ptr %7, align 8, !tbaa !70
  %183 = load i32, ptr %14, align 4, !tbaa !24
  %184 = load i32, ptr %8, align 4, !tbaa !24
  %185 = mul nsw i32 %183, %184
  %186 = load i32, ptr %13, align 4, !tbaa !24
  %187 = add nsw i32 %185, %186
  %188 = sext i32 %187 to i64
  %189 = getelementptr inbounds i8, ptr %182, i64 %188
  store i8 %181, ptr %189, align 1, !tbaa !77
  br label %190

190:                                              ; preds = %158
  %191 = load i32, ptr %13, align 4, !tbaa !24
  %192 = add nsw i32 %191, 1
  store i32 %192, ptr %13, align 4, !tbaa !24
  br label %153, !llvm.loop !89

193:                                              ; preds = %153
  br label %194

194:                                              ; preds = %193
  %195 = load i32, ptr %14, align 4, !tbaa !24
  %196 = add nsw i32 %195, 1
  store i32 %196, ptr %14, align 4, !tbaa !24
  br label %147, !llvm.loop !90

197:                                              ; preds = %147
  %198 = load i32, ptr %15, align 4, !tbaa !24
  %199 = add nsw i32 %198, 1
  %200 = ashr i32 %199, 2
  %201 = load i32, ptr %15, align 4, !tbaa !24
  %202 = add nsw i32 %201, 1
  %203 = add nsw i32 %200, %202
  %204 = load ptr, ptr %12, align 8, !tbaa !38
  store i32 %203, ptr %204, align 4, !tbaa !24
  call void @llvm.lifetime.end.p0(i64 4, ptr %15) #4
  call void @llvm.lifetime.end.p0(i64 4, ptr %14) #4
  call void @llvm.lifetime.end.p0(i64 4, ptr %13) #4
  ret void

205:                                              ; preds = %143
  unreachable
}