; Function Attrs: nofree norecurse nosync nounwind memory(argmem: readwrite) uwtable
define internal fastcc void @convert_mask_to_strength_mask(ptr noundef captures(none) %0, i32 noundef %1, i32 noundef %2, i32 noundef %3, i32 noundef range(i32 0, 17) %4, ptr noundef nonnull writeonly captures(none) %5) unnamed_addr #4 {
  %7 = icmp sgt i32 %3, 0
  br i1 %7, label %.preheader83.lr.ph, label %._crit_edge109

.preheader83.lr.ph:                               ; preds = %6
  %8 = icmp sgt i32 %2, 0
  br i1 %8, label %.preheader83.us.preheader, label %.preheader82

.preheader83.us.preheader:                        ; preds = %.preheader83.lr.ph
  %9 = sext i32 %1 to i64
  %wide.trip.count118 = zext nneg i32 %3 to i64
  %wide.trip.count = zext nneg i32 %2 to i64
  br label %.preheader83.us

.preheader83.us:                                  ; preds = %.preheader83.us.preheader, %._crit_edge.us
  %indvars.iv115 = phi i64 [ 0, %.preheader83.us.preheader ], [ %indvars.iv.next116, %._crit_edge.us ]
  %10 = mul nsw i64 %indvars.iv115, %9
  %invariant.gep = getelementptr i8, ptr %0, i64 %10
  br label %11

11:                                               ; preds = %.preheader83.us, %11
  %indvars.iv = phi i64 [ 0, %.preheader83.us ], [ %indvars.iv.next, %11 ]
  %gep = getelementptr i8, ptr %invariant.gep, i64 %indvars.iv
  %12 = load i8, ptr %gep, align 1, !tbaa !31
  %13 = zext i8 %12 to i32
  %14 = icmp samesign ult i32 %4, %13
  %15 = zext i1 %14 to i8
  store i8 %15, ptr %gep, align 1, !tbaa !31
  %indvars.iv.next = add nuw nsw i64 %indvars.iv, 1
  %exitcond.not = icmp eq i64 %indvars.iv.next, %wide.trip.count
  br i1 %exitcond.not, label %._crit_edge.us, label %11, !llvm.loop !79

._crit_edge.us:                                   ; preds = %11
  %indvars.iv.next116 = add nuw nsw i64 %indvars.iv115, 1
  %exitcond119.not = icmp eq i64 %indvars.iv.next116, %wide.trip.count118
  br i1 %exitcond119.not, label %.preheader82, label %.preheader83.us, !llvm.loop !80

.preheader82:                                     ; preds = %._crit_edge.us, %.preheader83.lr.ph
  %16 = getelementptr inbounds nuw i8, ptr %0, i64 1
  %17 = sext i32 %1 to i64
  %18 = add nsw i32 %3, -1
  %19 = icmp sgt i32 %3, 2
  %20 = add i32 %2, -1
  %21 = sub nsw i64 0, %17
  %22 = icmp sgt i32 %2, 2
  %or.cond = and i1 %19, %22
  br i1 %or.cond, label %.preheader81.lr.ph.us.us, label %._crit_edge109

.preheader81.lr.ph.us.us:                         ; preds = %.preheader82, %._crit_edge93.split.us.us.us
  %.066.us.us = phi i32 [ %48, %._crit_edge93.split.us.us.us ], [ 0, %.preheader82 ]
  br label %.preheader81.us.us.us

.preheader81.us.us.us:                            ; preds = %._crit_edge.us96.us.us, %.preheader81.lr.ph.us.us
  %.pn = phi ptr [ %16, %.preheader81.lr.ph.us.us ], [ %.06492.us.us.us, %._crit_edge.us96.us.us ]
  %.06591.us.us.us = phi i32 [ 0, %.preheader81.lr.ph.us.us ], [ %.2.us.us.us, %._crit_edge.us96.us.us ]
  %.16890.us.us.us = phi i32 [ 1, %.preheader81.lr.ph.us.us ], [ %47, %._crit_edge.us96.us.us ]
  %.06492.us.us.us = getelementptr inbounds i8, ptr %.pn, i64 %17
  br label %23

23:                                               ; preds = %44, %.preheader81.us.us.us
  %.06388.us.us.us = phi ptr [ %.06492.us.us.us, %.preheader81.us.us.us ], [ %45, %44 ]
  %.187.us.us.us = phi i32 [ %.06591.us.us.us, %.preheader81.us.us.us ], [ %.2.us.us.us, %44 ]
  %.17186.us.us.us = phi i32 [ 1, %.preheader81.us.us.us ], [ %46, %44 ]
  %24 = load i8, ptr %.06388.us.us.us, align 1, !tbaa !31
  %25 = zext i8 %24 to i32
  %.not75.not.us.us.us = icmp samesign ult i32 %.066.us.us, %25
  br i1 %.not75.not.us.us.us, label %26, label %44

26:                                               ; preds = %23
  %27 = getelementptr inbounds nuw i8, ptr %.06388.us.us.us, i64 1
  %28 = load i8, ptr %27, align 1, !tbaa !31
  %29 = zext i8 %28 to i32
  %.not76.not.us.us.us = icmp samesign ult i32 %.066.us.us, %29
  br i1 %.not76.not.us.us.us, label %30, label %44

30:                                               ; preds = %26
  %31 = getelementptr inbounds i8, ptr %.06388.us.us.us, i64 -1
  %32 = load i8, ptr %31, align 1, !tbaa !31
  %33 = zext i8 %32 to i32
  %.not77.not.us.us.us = icmp samesign ult i32 %.066.us.us, %33
  br i1 %.not77.not.us.us.us, label %34, label %44

34:                                               ; preds = %30
  %35 = getelementptr inbounds i8, ptr %.06388.us.us.us, i64 %17
  %36 = load i8, ptr %35, align 1, !tbaa !31
  %37 = zext i8 %36 to i32
  %.not78.not.us.us.us = icmp samesign ult i32 %.066.us.us, %37
  br i1 %.not78.not.us.us.us, label %38, label %44

38:                                               ; preds = %34
  %39 = getelementptr inbounds i8, ptr %.06388.us.us.us, i64 %21
  %40 = load i8, ptr %39, align 1, !tbaa !31
  %41 = zext i8 %40 to i32
  %.not79.not.us.us.us = icmp samesign ult i32 %.066.us.us, %41
  br i1 %.not79.not.us.us.us, label %42, label %44

42:                                               ; preds = %38
  %43 = add i8 %24, 1
  store i8 %43, ptr %.06388.us.us.us, align 1, !tbaa !31
  br label %44

44:                                               ; preds = %42, %38, %34, %30, %26, %23
  %.2.us.us.us = phi i32 [ 1, %42 ], [ %.187.us.us.us, %38 ], [ %.187.us.us.us, %34 ], [ %.187.us.us.us, %30 ], [ %.187.us.us.us, %26 ], [ %.187.us.us.us, %23 ]
  %45 = getelementptr inbounds nuw i8, ptr %.06388.us.us.us, i64 1
  %46 = add nuw nsw i32 %.17186.us.us.us, 1
  %exitcond120.not = icmp eq i32 %46, %20
  br i1 %exitcond120.not, label %._crit_edge.us96.us.us, label %23, !llvm.loop !81

._crit_edge.us96.us.us:                           ; preds = %44
  %47 = add nuw nsw i32 %.16890.us.us.us, 1
  %exitcond121.not = icmp eq i32 %47, %18
  br i1 %exitcond121.not, label %._crit_edge93.split.us.us.us, label %.preheader81.us.us.us, !llvm.loop !82

._crit_edge93.split.us.us.us:                     ; preds = %._crit_edge.us96.us.us
  %48 = add nuw nsw i32 %.066.us.us, 1
  %.not.us.us = icmp eq i32 %.2.us.us.us, 0
  br i1 %.not.us.us, label %.preheader80, label %.preheader81.lr.ph.us.us

.preheader80:                                     ; preds = %._crit_edge93.split.us.us.us
  %49 = add nuw nsw i32 %.066.us.us, 2
  %50 = icmp sgt i32 %2, 2
  %or.cond144 = and i1 %19, %50
  br i1 %or.cond144, label %.preheader.us.preheader, label %._crit_edge109

.preheader.us.preheader:                          ; preds = %.preheader80
  %wide.trip.count130 = zext nneg i32 %18 to i64
  %wide.trip.count125 = zext i32 %20 to i64
  br label %.preheader.us

.preheader.us:                                    ; preds = %.preheader.us.preheader, %._crit_edge.us110
  %indvars.iv127 = phi i64 [ 1, %.preheader.us.preheader ], [ %indvars.iv.next128, %._crit_edge.us110 ]
  %51 = mul nsw i64 %indvars.iv127, %17
  %invariant.gep142 = getelementptr i8, ptr %0, i64 %51
  br label %52

52:                                               ; preds = %.preheader.us, %52
  %indvars.iv122 = phi i64 [ 1, %.preheader.us ], [ %indvars.iv.next123, %52 ]
  %gep143 = getelementptr i8, ptr %invariant.gep142, i64 %indvars.iv122
  %53 = load i8, ptr %gep143, align 1, !tbaa !31
  %54 = lshr i8 %53, 2
  %55 = add i8 %54, %53
  store i8 %55, ptr %gep143, align 1, !tbaa !31
  %indvars.iv.next123 = add nuw nsw i64 %indvars.iv122, 1
  %exitcond126.not = icmp eq i64 %indvars.iv.next123, %wide.trip.count125
  br i1 %exitcond126.not, label %._crit_edge.us110, label %52, !llvm.loop !83

._crit_edge.us110:                                ; preds = %52
  %indvars.iv.next128 = add nuw nsw i64 %indvars.iv127, 1
  %exitcond131.not = icmp eq i64 %indvars.iv.next128, %wide.trip.count130
  br i1 %exitcond131.not, label %._crit_edge109, label %.preheader.us, !llvm.loop !84

._crit_edge109:                                   ; preds = %._crit_edge.us110, %6, %.preheader82, %.preheader80
  %.us-phi104136 = phi i32 [ %49, %.preheader80 ], [ 2, %.preheader82 ], [ 2, %6 ], [ %49, %._crit_edge.us110 ]
  %56 = lshr i32 %.us-phi104136, 2
  %57 = add nuw nsw i32 %56, %.us-phi104136
  store i32 %57, ptr %5, align 4, !tbaa !25
  ret void
}